target datalayout = "e-m:e-p270:32:32-p271:32:32-p272:64:64-i64:64-i128:128-f80:128-n8:16:32:64-S128"
target triple = "x86_64-pc-linux-gnu"

%class.QAbstractItemModel = type { %class.QObject }
%class.QObject = type { ptr, %class.QScopedPointer }
%class.QScopedPointer = type { ptr }
%class.QString = type { %struct.QArrayDataPointer }
%struct.QArrayDataPointer = type { ptr, ptr, i64 }
%class.QModelIndex = type { i32, i32, i64, ptr }
%class.QVariant = type { %"struct.QVariant::Private" }
%"struct.QVariant::Private" = type { %union.anon.3, i64 }
%union.anon.3 = type { ptr, [16 x i8] }
%class.QList = type { %struct.QArrayDataPointer.4 }
%struct.QArrayDataPointer.4 = type { ptr, ptr, i64 }
%class.ProfileModel = type { %class.QAbstractTableModel, i32, i32, %class.QList.5, %class.QList, %class.QString, i8, i8, i32 }
%class.QAbstractTableModel = type { %class.QAbstractItemModel }
%class.QList.5 = type { %struct.QArrayDataPointer.8 }
%struct.QArrayDataPointer.8 = type { ptr, ptr, i64 }
%struct.profile_def = type { ptr, ptr, i32, i8, i8, i8, i8, ptr }
%class.QColor = type <{ i32, %"union.QColor::CT", [2 x i8] }>
%"union.QColor::CT" = type { %struct.anon }
%struct.anon = type { i16, i16, i16, i16, i16 }

; Function Attrs: inlinehint mustprogress nounwind null_pointer_is_valid sspstrong uwtable
define linkonce_odr void @_ZN8QVariant7PrivateUt_C2Ev(ptr noundef align 8 dereferenceable_or_null(24) %0) unnamed_addr #4 comdat align 2 {
  %2 = alloca ptr, align 8
  store ptr %0, ptr %2, align 8
  %3 = load ptr, ptr %2, align 8
  %4 = getelementptr inbounds i8, ptr %3, i64 24
  br label %5

5:                                                ; preds = %5, %1
  %6 = phi ptr [ %3, %1 ], [ %7, %5 ]
  store i8 0, ptr %6, align 1
  %7 = getelementptr inbounds i8, ptr %6, i64 1
  %8 = icmp eq ptr %7, %4
  br i1 %8, label %9, label %5

9:                                                ; preds = %5
  ret void
}

; Function Attrs: mustprogress nounwind null_pointer_is_valid sspstrong uwtable
define linkonce_odr noundef ptr @_ZNK17QArrayDataPointerIP11profile_defEptEv(ptr noundef align 8 dereferenceable_or_null(24) %0) #8 comdat align 2 {
  %2 = alloca ptr, align 8
  store ptr %0, ptr %2, align 8
  %3 = load ptr, ptr %2, align 8
  ret ptr %3
}

; Function Attrs: mustprogress nounwind null_pointer_is_valid sspstrong uwtable
define linkonce_odr void @_ZN8QVariant7PrivateC2Ev(ptr noundef align 8 dereferenceable_or_null(32) %0) unnamed_addr #8 comdat align 2 {
  %2 = alloca ptr, align 8
  store ptr %0, ptr %2, align 8
  %3 = load ptr, ptr %2, align 8
  %4 = getelementptr inbounds nuw %"struct.QVariant::Private", ptr %3, i32 0, i32 0
  call void @_ZN8QVariant7PrivateUt_C2Ev(ptr noundef align 8 dereferenceable_or_null(24) %4) #1
  %5 = getelementptr inbounds nuw %"struct.QVariant::Private", ptr %3, i32 0, i32 1
  %6 = load i64, ptr %5, align 8
  %7 = and i64 %6, -2
  %8 = or i64 %7, 0
  store i64 %8, ptr %5, align 8
  %9 = getelementptr inbounds nuw %"struct.QVariant::Private", ptr %3, i32 0, i32 1
  %10 = load i64, ptr %9, align 8
  %11 = and i64 %10, -3
  %12 = or i64 %11, 2
  store i64 %12, ptr %9, align 8
  %13 = getelementptr inbounds nuw %"struct.QVariant::Private", ptr %3, i32 0, i32 1
  %14 = load i64, ptr %13, align 8
  %15 = and i64 %14, 3
  %16 = or i64 %15, 0
  store i64 %16, ptr %13, align 8
  ret void
}

; Function Attrs: mustprogress nounwind null_pointer_is_valid sspstrong uwtable
define linkonce_odr noundef i64 @_ZNK5QListIP11profile_defE4sizeEv(ptr noundef align 8 dereferenceable_or_null(24) %0) #8 comdat align 2 {
  %2 = alloca ptr, align 8
  store ptr %0, ptr %2, align 8
  %3 = load ptr, ptr %2, align 8
  %4 = getelementptr inbounds nuw %class.QList.5, ptr %3, i32 0, i32 0
  %5 = call noundef ptr @_ZNK17QArrayDataPointerIP11profile_defEptEv(ptr noundef align 8 dereferenceable_or_null(24) %4) #1
  %6 = getelementptr inbounds nuw %struct.QArrayDataPointer.8, ptr %5, i32 0, i32 2
  %7 = load i64, ptr %6, align 8
  ret i64 %7
}

; Function Attrs: inlinehint mustprogress nounwind null_pointer_is_valid sspstrong uwtable
define linkonce_odr noundef i32 @_ZNK11QModelIndex6columnEv(ptr noundef align 8 dereferenceable_or_null(24) %0) #4 comdat align 2 {
  %2 = alloca ptr, align 8
  store ptr %0, ptr %2, align 8
  %3 = load ptr, ptr %2, align 8
  %4 = getelementptr inbounds nuw %class.QModelIndex, ptr %3, i32 0, i32 1
  %5 = load i32, ptr %4, align 4
  ret i32 %5
}

; Function Attrs: mustprogress nounwind null_pointer_is_valid sspstrong uwtable
define linkonce_odr void @_ZN8QVariantC2Ev(ptr noundef align 8 dereferenceable_or_null(32) %0) unnamed_addr #8 comdat align 2 {
  %2 = alloca ptr, align 8
  store ptr %0, ptr %2, align 8
  %3 = load ptr, ptr %2, align 8
  %4 = getelementptr inbounds nuw %class.QVariant, ptr %3, i32 0, i32 0
  call void @_ZN8QVariant7PrivateC2Ev(ptr noundef align 8 dereferenceable_or_null(32) %4) #1
  ret void
}

; Function Attrs: inlinehint mustprogress nounwind null_pointer_is_valid sspstrong uwtable
define linkonce_odr noundef i32 @_ZNK11QModelIndex3rowEv(ptr noundef align 8 dereferenceable_or_null(24) %0) #4 comdat align 2 {
  %2 = alloca ptr, align 8
  store ptr %0, ptr %2, align 8
  %3 = load ptr, ptr %2, align 8
  %4 = getelementptr inbounds nuw %class.QModelIndex, ptr %3, i32 0, i32 0
  %5 = load i32, ptr %4, align 8
  ret i32 %5
}

; Function Attrs: mustprogress nounwind null_pointer_is_valid sspstrong uwtable
define linkonce_odr noundef i64 @_ZNK5QListIP11profile_defE5countEv(ptr noundef align 8 dereferenceable_or_null(24) %0) #8 comdat align 2 {
  %2 = alloca ptr, align 8
  store ptr %0, ptr %2, align 8
  %3 = load ptr, ptr %2, align 8
  %4 = call noundef i64 @_ZNK5QListIP11profile_defE4sizeEv(ptr noundef align 8 dereferenceable_or_null(24) %3) #1
  ret i64 %4
}

; Function Attrs: inlinehint mustprogress nounwind null_pointer_is_valid sspstrong uwtable
define linkonce_odr noundef zeroext i1 @_ZNK11QModelIndex7isValidEv(ptr noundef align 8 dereferenceable_or_null(24) %0) #4 comdat align 2 {
  %2 = alloca ptr, align 8
  store ptr %0, ptr %2, align 8
  %3 = load ptr, ptr %2, align 8
  %4 = getelementptr inbounds nuw %class.QModelIndex, ptr %3, i32 0, i32 0
  %5 = load i32, ptr %4, align 8
  %6 = icmp sge i32 %5, 0
  br i1 %6, label %7, label %15

7:                                                ; preds = %1
  %8 = getelementptr inbounds nuw %class.QModelIndex, ptr %3, i32 0, i32 1
  %9 = load i32, ptr %8, align 4
  %10 = icmp sge i32 %9, 0
  br i1 %10, label %11, label %15

11:                                               ; preds = %7
  %12 = getelementptr inbounds nuw %class.QModelIndex, ptr %3, i32 0, i32 3
  %13 = load ptr, ptr %12, align 8
  %14 = icmp ne ptr %13, null
  br label %15

15:                                               ; preds = %11, %7, %1
  %16 = phi i1 [ false, %7 ], [ false, %1 ], [ %14, %11 ]
  ret i1 %16
}

; Function Attrs: mustprogress null_pointer_is_valid sspstrong uwtable
define void @_ZNK12ProfileModel18dataForegroundRoleERK11QModelIndex(ptr dead_on_unwind noalias writable sret(%class.QVariant) align 8 %0, ptr noundef align 8 dereferenceable_or_null(104) %1, ptr noundef align 8 dereferenceable(24) %2) #0 align 2 {
  %4 = alloca ptr, align 8
  %5 = alloca ptr, align 8
  %6 = alloca ptr, align 8
  %7 = alloca ptr, align 8
  %8 = alloca i32, align 4
  %9 = alloca %class.QColor, align 4
  %10 = alloca { i64, i64 }, align 8
  store ptr %0, ptr %4, align 8
  store ptr %1, ptr %5, align 8
  store ptr %2, ptr %6, align 8
  %11 = load ptr, ptr %5, align 8
  %12 = load ptr, ptr %6, align 8
  %13 = call noundef zeroext i1 @_ZNK11QModelIndex7isValidEv(ptr noundef align 8 dereferenceable_or_null(24) %12) #1
  br i1 %13, label %14, label %21

14:                                               ; preds = %3
  %15 = getelementptr inbounds nuw %class.ProfileModel, ptr %11, i32 0, i32 3
  %16 = call noundef i64 @_ZNK5QListIP11profile_defE5countEv(ptr noundef align 8 dereferenceable_or_null(24) %15) #1
  %17 = load ptr, ptr %6, align 8
  %18 = call noundef i32 @_ZNK11QModelIndex3rowEv(ptr noundef align 8 dereferenceable_or_null(24) %17) #1
  %19 = sext i32 %18 to i64
  %20 = icmp sle i64 %16, %19
  br i1 %20, label %21, label %22

21:                                               ; preds = %14, %3
  call void @_ZN8QVariantC2Ev(ptr noundef align 8 dereferenceable_or_null(32) %0) #1
  br label %42

22:                                               ; preds = %14
  call void @llvm.lifetime.start.p0(i64 8, ptr %7) #1
  %23 = load ptr, ptr %6, align 8
  %24 = call noundef i32 @_ZNK11QModelIndex3rowEv(ptr noundef align 8 dereferenceable_or_null(24) %23) #1
  %25 = call noundef ptr @_ZNK12ProfileModel5guardEi(ptr noundef align 8 dereferenceable_or_null(104) %11, i32 noundef %24)
  store ptr %25, ptr %7, align 8
  %26 = load ptr, ptr %7, align 8
  %27 = icmp ne ptr %26, null
  br i1 %27, label %29, label %28

28:                                               ; preds = %22
  call void @_ZN8QVariantC2Ev(ptr noundef align 8 dereferenceable_or_null(32) %0) #1
  store i32 1, ptr %8, align 4
  br label %41

29:                                               ; preds = %22
  %30 = load ptr, ptr %7, align 8
  %31 = getelementptr inbounds nuw %struct.profile_def, ptr %30, i32 0, i32 3
  %32 = load i8, ptr %31, align 4, !range !7, !noundef !8
  %33 = trunc i8 %32 to i1
  br i1 %33, label %34, label %40

34:                                               ; preds = %29
  %35 = load ptr, ptr %6, align 8
  %36 = call noundef i32 @_ZNK11QModelIndex6columnEv(ptr noundef align 8 dereferenceable_or_null(24) %35) #1
  %37 = icmp eq i32 %36, 2
  br i1 %37, label %38, label %40

38:                                               ; preds = %34
  call void @llvm.lifetime.start.p0(i64 16, ptr %9) #1
  %39 = call { i64, i64 } @_ZN10ColorUtils18disabledForegroundEv()
  store { i64, i64 } %39, ptr %10, align 8
  call void @llvm.memcpy.p0.p0.i64(ptr align 4 %9, ptr align 8 %10, i64 14, i1 false)
  call void @_ZNK6QColorcv8QVariantEv(ptr dead_on_unwind writable sret(%class.QVariant) align 8 %0, ptr noundef align 4 dereferenceable_or_null(14) %9)
  call void @llvm.lifetime.end.p0(i64 16, ptr %9) #1
  store i32 1, ptr %8, align 4
  br label %41

40:                                               ; preds = %34, %29
  call void @_ZN8QVariantC2Ev(ptr noundef align 8 dereferenceable_or_null(32) %0) #1
  store i32 1, ptr %8, align 4
  br label %41

41:                                               ; preds = %40, %38, %28
  call void @llvm.lifetime.end.p0(i64 8, ptr %7) #1
  br label %42

42:                                               ; preds = %41, %21
  ret void
}