; Function Attrs: mustprogress null_pointer_is_valid sspstrong uwtable
define void @_ZNK12ProfileModel18dataForegroundRoleERK11QModelIndex(ptr dead_on_unwind noalias writable sret(%class.QVariant) align 8 %0, ptr noundef readonly align 8 captures(none) dereferenceable_or_null(104) %1, ptr noundef readonly align 8 captures(none) dereferenceable(24) %2) local_unnamed_addr #0 align 2 {
  %4 = alloca %class.QColor, align 8
  %5 = load i32, ptr %2, align 8
  %6 = icmp sgt i32 %5, -1
  %7 = getelementptr inbounds nuw i8, ptr %2, i64 4
  %8 = load i32, ptr %7, align 4
  %9 = icmp sgt i32 %8, -1
  %or.cond = select i1 %6, i1 %9, i1 false
  %10 = getelementptr inbounds nuw i8, ptr %2, i64 16
  %11 = load ptr, ptr %10, align 8
  %12 = icmp ne ptr %11, null
  %or.cond12 = select i1 %or.cond, i1 %12, i1 false
  br i1 %or.cond12, label %13, label %_ZNK11QModelIndex7isValidEv.exit.thread

13:                                               ; preds = %3
  %14 = getelementptr inbounds nuw i8, ptr %1, i64 40
  %15 = load i64, ptr %14, align 8
  %16 = zext nneg i32 %5 to i64
  %.not = icmp sgt i64 %15, %16
  br i1 %.not, label %18, label %_ZNK11QModelIndex7isValidEv.exit.thread

_ZNK11QModelIndex7isValidEv.exit.thread:          ; preds = %3, %13
  tail call void @llvm.memset.p0.i64(ptr noundef align 8 dereferenceable(24) dereferenceable_or_null(32) %0, i8 0, i64 24, i1 false)
  %17 = getelementptr inbounds nuw i8, ptr %0, i64 24
  store i64 2, ptr %17, align 8
  br label %32

18:                                               ; preds = %13
  %19 = tail call noundef ptr @_ZNK12ProfileModel5guardEi(ptr noundef align 8 dereferenceable_or_null(104) %1, i32 noundef %5)
  %.not7 = icmp eq ptr %19, null
  br i1 %.not7, label %20, label %22

20:                                               ; preds = %18
  tail call void @llvm.memset.p0.i64(ptr noundef align 8 dereferenceable(24) dereferenceable_or_null(32) %0, i8 0, i64 24, i1 false)
  %21 = getelementptr inbounds nuw i8, ptr %0, i64 24
  store i64 2, ptr %21, align 8
  br label %32

22:                                               ; preds = %18
  %23 = getelementptr inbounds nuw i8, ptr %19, i64 20
  %24 = load i8, ptr %23, align 4, !range !58, !noundef !59
  %25 = trunc nuw i8 %24 to i1
  %26 = load i32, ptr %7, align 4
  %27 = icmp eq i32 %26, 2
  %or.cond15 = select i1 %25, i1 %27, i1 false
  br i1 %or.cond15, label %28, label %30

28:                                               ; preds = %22
  call void @llvm.lifetime.start.p0(i64 16, ptr nonnull %4) #26
  %29 = tail call { i64, i64 } @_ZN10ColorUtils18disabledForegroundEv()
  %.fca.0.extract = extractvalue { i64, i64 } %29, 0
  %.fca.1.extract = extractvalue { i64, i64 } %29, 1
  store i64 %.fca.0.extract, ptr %4, align 8
  %.sroa.2.0..sroa_idx = getelementptr inbounds nuw i8, ptr %4, i64 8
  %.sroa.2.0.extract.trunc = trunc i64 %.fca.1.extract to i48
  store i48 %.sroa.2.0.extract.trunc, ptr %.sroa.2.0..sroa_idx, align 8
  call void @_ZNK6QColorcv8QVariantEv(ptr dead_on_unwind writable sret(%class.QVariant) align 8 %0, ptr noundef nonnull align 4 dereferenceable_or_null(14) %4)
  call void @llvm.lifetime.end.p0(i64 16, ptr nonnull %4) #26
  br label %32

30:                                               ; preds = %22
  tail call void @llvm.memset.p0.i64(ptr noundef align 8 dereferenceable(24) dereferenceable_or_null(32) %0, i8 0, i64 24, i1 false)
  %31 = getelementptr inbounds nuw i8, ptr %0, i64 24
  store i64 2, ptr %31, align 8
  br label %32

32:                                               ; preds = %20, %28, %30, %_ZNK11QModelIndex7isValidEv.exit.thread
  ret void
}